target datalayout = "e-m:e-p270:32:32-p271:32:32-p272:64:64-i64:64-i128:128-f80:128-n8:16:32:64-S128"
target triple = "x86_64-pc-linux-gnu"

%"struct.duckdb_hll::sdshdr8" = type { i8, i8, i8, [1 x i8] }
%"struct.duckdb_hll::sdshdr16" = type { i16, i16, i8, [1 x i8] }
%"struct.duckdb_hll::sdshdr32" = type <{ i32, i32, i8, [1 x i8] }>
%"struct.duckdb_hll::sdshdr64" = type <{ i64, i64, i8, [1 x i8] }>

; Function Attrs: inlinehint mustprogress nounwind uwtable
define internal noundef i32 @_ZN10duckdb_hllL10sdsHdrSizeEc(i8 noundef signext %0) #2 {
  %2 = alloca i32, align 4
  %3 = alloca i8, align 1
  store i8 %0, ptr %3, align 1, !tbaa !9
  %4 = load i8, ptr %3, align 1, !tbaa !9
  %5 = sext i8 %4 to i32
  %6 = and i32 %5, 7
  switch i32 %6, label %12 [
    i32 0, label %7
    i32 1, label %8
    i32 2, label %9
    i32 3, label %10
    i32 4, label %11
  ]

7:                                                ; preds = %1
  store i32 2, ptr %2, align 4
  br label %13

8:                                                ; preds = %1
  store i32 4, ptr %2, align 4
  br label %13

9:                                                ; preds = %1
  store i32 6, ptr %2, align 4
  br label %13

10:                                               ; preds = %1
  store i32 10, ptr %2, align 4
  br label %13

11:                                               ; preds = %1
  store i32 18, ptr %2, align 4
  br label %13

12:                                               ; preds = %1
  store i32 0, ptr %2, align 4
  br label %13

13:                                               ; preds = %12, %11, %10, %9, %8, %7
  %14 = load i32, ptr %2, align 4
  ret i32 %14
}

; Function Attrs: inlinehint mustprogress nounwind uwtable
define internal noundef signext i8 @_ZN10duckdb_hllL10sdsReqTypeEm(i64 noundef %0) #2 {
  %2 = alloca i8, align 1
  %3 = alloca i64, align 8
  store i64 %0, ptr %3, align 8, !tbaa !7
  %4 = load i64, ptr %3, align 8, !tbaa !7
  %5 = icmp ult i64 %4, 32
  br i1 %5, label %6, label %7

6:                                                ; preds = %1
  store i8 0, ptr %2, align 1
  br label %20

7:                                                ; preds = %1
  %8 = load i64, ptr %3, align 8, !tbaa !7
  %9 = icmp ult i64 %8, 256
  br i1 %9, label %10, label %11

10:                                               ; preds = %7
  store i8 1, ptr %2, align 1
  br label %20

11:                                               ; preds = %7
  %12 = load i64, ptr %3, align 8, !tbaa !7
  %13 = icmp ult i64 %12, 65536
  br i1 %13, label %14, label %15

14:                                               ; preds = %11
  store i8 2, ptr %2, align 1
  br label %20

15:                                               ; preds = %11
  %16 = load i64, ptr %3, align 8, !tbaa !7
  %17 = icmp ult i64 %16, 4294967296
  br i1 %17, label %18, label %19

18:                                               ; preds = %15
  store i8 3, ptr %2, align 1
  br label %20

19:                                               ; preds = %15
  store i8 4, ptr %2, align 1
  br label %20

20:                                               ; preds = %19, %18, %14, %10, %6
  %21 = load i8, ptr %2, align 1
  ret i8 %21
}

; Function Attrs: mustprogress uwtable
define noundef ptr @_ZN10duckdb_hll9sdsnewlenEPKvm(ptr noundef %0, i64 noundef %1) #0 {
  %3 = alloca ptr, align 8
  %4 = alloca ptr, align 8
  %5 = alloca i64, align 8
  %6 = alloca ptr, align 8
  %7 = alloca ptr, align 8
  %8 = alloca i8, align 1
  %9 = alloca i32, align 4
  %10 = alloca ptr, align 8
  %11 = alloca i32, align 4
  %12 = alloca ptr, align 8
  %13 = alloca ptr, align 8
  %14 = alloca ptr, align 8
  %15 = alloca ptr, align 8
  store ptr %0, ptr %4, align 8, !tbaa !3
  store i64 %1, ptr %5, align 8, !tbaa !7
  call void @llvm.lifetime.start.p0(i64 8, ptr %6) #11
  call void @llvm.lifetime.start.p0(i64 8, ptr %7) #11
  call void @llvm.lifetime.start.p0(i64 1, ptr %8) #11
  %16 = load i64, ptr %5, align 8, !tbaa !7
  %17 = call noundef signext i8 @_ZN10duckdb_hllL10sdsReqTypeEm(i64 noundef %16)
  store i8 %17, ptr %8, align 1, !tbaa !9
  %18 = load i8, ptr %8, align 1, !tbaa !9
  %19 = sext i8 %18 to i32
  %20 = icmp eq i32 %19, 0
  br i1 %20, label %21, label %25

21:                                               ; preds = %2
  %22 = load i64, ptr %5, align 8, !tbaa !7
  %23 = icmp eq i64 %22, 0
  br i1 %23, label %24, label %25

24:                                               ; preds = %21
  store i8 1, ptr %8, align 1, !tbaa !9
  br label %25

25:                                               ; preds = %24, %21, %2
  call void @llvm.lifetime.start.p0(i64 4, ptr %9) #11
  %26 = load i8, ptr %8, align 1, !tbaa !9
  %27 = call noundef i32 @_ZN10duckdb_hllL10sdsHdrSizeEc(i8 noundef signext %26)
  store i32 %27, ptr %9, align 4, !tbaa !10
  call void @llvm.lifetime.start.p0(i64 8, ptr %10) #11
  %28 = load i32, ptr %9, align 4, !tbaa !10
  %29 = sext i32 %28 to i64
  %30 = load i64, ptr %5, align 8, !tbaa !7
  %31 = add i64 %29, %30
  %32 = add i64 %31, 1
  %33 = call noalias ptr @malloc(i64 noundef %32) #12
  store ptr %33, ptr %6, align 8, !tbaa !3
  %34 = load ptr, ptr %4, align 8, !tbaa !3
  %35 = icmp ne ptr %34, null
  br i1 %35, label %43, label %36

36:                                               ; preds = %25
  %37 = load ptr, ptr %6, align 8, !tbaa !3
  %38 = load i32, ptr %9, align 4, !tbaa !10
  %39 = sext i32 %38 to i64
  %40 = load i64, ptr %5, align 8, !tbaa !7
  %41 = add i64 %39, %40
  %42 = add i64 %41, 1
  call void @llvm.memset.p0.i64(ptr align 1 %37, i8 0, i64 %42, i1 false)
  br label %43

43:                                               ; preds = %36, %25
  %44 = load ptr, ptr %6, align 8, !tbaa !3
  %45 = icmp eq ptr %44, null
  br i1 %45, label %46, label %47

46:                                               ; preds = %43
  store ptr null, ptr %3, align 8
  store i32 1, ptr %11, align 4
  br label %129

47:                                               ; preds = %43
  %48 = load ptr, ptr %6, align 8, !tbaa !3
  %49 = load i32, ptr %9, align 4, !tbaa !10
  %50 = sext i32 %49 to i64
  %51 = getelementptr inbounds i8, ptr %48, i64 %50
  store ptr %51, ptr %7, align 8, !tbaa !12
  %52 = load ptr, ptr %7, align 8, !tbaa !12
  %53 = getelementptr inbounds i8, ptr %52, i64 -1
  store ptr %53, ptr %10, align 8, !tbaa !12
  %54 = load i8, ptr %8, align 1, !tbaa !9
  %55 = sext i8 %54 to i32
  switch i32 %55, label %114 [
    i32 0, label %56
    i32 1, label %64
    i32 2, label %77
    i32 3, label %90
    i32 4, label %103
  ]

56:                                               ; preds = %47
  %57 = load i8, ptr %8, align 1, !tbaa !9
  %58 = sext i8 %57 to i64
  %59 = load i64, ptr %5, align 8, !tbaa !7
  %60 = shl i64 %59, 3
  %61 = or i64 %58, %60
  %62 = trunc i64 %61 to i8
  %63 = load ptr, ptr %10, align 8, !tbaa !12
  store i8 %62, ptr %63, align 1, !tbaa !9
  br label %114

64:                                               ; preds = %47
  call void @llvm.lifetime.start.p0(i64 8, ptr %12) #11
  %65 = load ptr, ptr %7, align 8, !tbaa !12
  %66 = getelementptr inbounds i8, ptr %65, i64 -4
  store ptr %66, ptr %12, align 8, !tbaa !14
  %67 = load i64, ptr %5, align 8, !tbaa !7
  %68 = trunc i64 %67 to i8
  %69 = load ptr, ptr %12, align 8, !tbaa !14
  %70 = getelementptr inbounds nuw %"struct.duckdb_hll::sdshdr8", ptr %69, i32 0, i32 0
  store i8 %68, ptr %70, align 1, !tbaa !16
  %71 = load i64, ptr %5, align 8, !tbaa !7
  %72 = trunc i64 %71 to i8
  %73 = load ptr, ptr %12, align 8, !tbaa !14
  %74 = getelementptr inbounds nuw %"struct.duckdb_hll::sdshdr8", ptr %73, i32 0, i32 1
  store i8 %72, ptr %74, align 1, !tbaa !18
  %75 = load i8, ptr %8, align 1, !tbaa !9
  %76 = load ptr, ptr %10, align 8, !tbaa !12
  store i8 %75, ptr %76, align 1, !tbaa !9
  store i32 2, ptr %11, align 4
  call void @llvm.lifetime.end.p0(i64 8, ptr %12) #11
  br label %114

77:                                               ; preds = %47
  call void @llvm.lifetime.start.p0(i64 8, ptr %13) #11
  %78 = load ptr, ptr %7, align 8, !tbaa !12
  %79 = getelementptr inbounds i8, ptr %78, i64 -6
  store ptr %79, ptr %13, align 8, !tbaa !19
  %80 = load i64, ptr %5, align 8, !tbaa !7
  %81 = trunc i64 %80 to i16
  %82 = load ptr, ptr %13, align 8, !tbaa !19
  %83 = getelementptr inbounds nuw %"struct.duckdb_hll::sdshdr16", ptr %82, i32 0, i32 0
  store i16 %81, ptr %83, align 1, !tbaa !21
  %84 = load i64, ptr %5, align 8, !tbaa !7
  %85 = trunc i64 %84 to i16
  %86 = load ptr, ptr %13, align 8, !tbaa !19
  %87 = getelementptr inbounds nuw %"struct.duckdb_hll::sdshdr16", ptr %86, i32 0, i32 1
  store i16 %85, ptr %87, align 1, !tbaa !24
  %88 = load i8, ptr %8, align 1, !tbaa !9
  %89 = load ptr, ptr %10, align 8, !tbaa !12
  store i8 %88, ptr %89, align 1, !tbaa !9
  store i32 2, ptr %11, align 4
  call void @llvm.lifetime.end.p0(i64 8, ptr %13) #11
  br label %114

90:                                               ; preds = %47
  call void @llvm.lifetime.start.p0(i64 8, ptr %14) #11
  %91 = load ptr, ptr %7, align 8, !tbaa !12
  %92 = getelementptr inbounds i8, ptr %91, i64 -10
  store ptr %92, ptr %14, align 8, !tbaa !25
  %93 = load i64, ptr %5, align 8, !tbaa !7
  %94 = trunc i64 %93 to i32
  %95 = load ptr, ptr %14, align 8, !tbaa !25
  %96 = getelementptr inbounds nuw %"struct.duckdb_hll::sdshdr32", ptr %95, i32 0, i32 0
  store i32 %94, ptr %96, align 1, !tbaa !27
  %97 = load i64, ptr %5, align 8, !tbaa !7
  %98 = trunc i64 %97 to i32
  %99 = load ptr, ptr %14, align 8, !tbaa !25
  %100 = getelementptr inbounds nuw %"struct.duckdb_hll::sdshdr32", ptr %99, i32 0, i32 1
  store i32 %98, ptr %100, align 1, !tbaa !29
  %101 = load i8, ptr %8, align 1, !tbaa !9
  %102 = load ptr, ptr %10, align 8, !tbaa !12
  store i8 %101, ptr %102, align 1, !tbaa !9
  store i32 2, ptr %11, align 4
  call void @llvm.lifetime.end.p0(i64 8, ptr %14) #11
  br label %114

103:                                              ; preds = %47
  call void @llvm.lifetime.start.p0(i64 8, ptr %15) #11
  %104 = load ptr, ptr %7, align 8, !tbaa !12
  %105 = getelementptr inbounds i8, ptr %104, i64 -18
  store ptr %105, ptr %15, align 8, !tbaa !30
  %106 = load i64, ptr %5, align 8, !tbaa !7
  %107 = load ptr, ptr %15, align 8, !tbaa !30
  %108 = getelementptr inbounds nuw %"struct.duckdb_hll::sdshdr64", ptr %107, i32 0, i32 0
  store i64 %106, ptr %108, align 1, !tbaa !32
  %109 = load i64, ptr %5, align 8, !tbaa !7
  %110 = load ptr, ptr %15, align 8, !tbaa !30
  %111 = getelementptr inbounds nuw %"struct.duckdb_hll::sdshdr64", ptr %110, i32 0, i32 1
  store i64 %109, ptr %111, align 1, !tbaa !34
  %112 = load i8, ptr %8, align 1, !tbaa !9
  %113 = load ptr, ptr %10, align 8, !tbaa !12
  store i8 %112, ptr %113, align 1, !tbaa !9
  store i32 2, ptr %11, align 4
  call void @llvm.lifetime.end.p0(i64 8, ptr %15) #11
  br label %114

114:                                              ; preds = %47, %103, %90, %77, %64, %56
  %115 = load i64, ptr %5, align 8, !tbaa !7
  %116 = icmp ne i64 %115, 0
  br i1 %116, label %117, label %124

117:                                              ; preds = %114
  %118 = load ptr, ptr %4, align 8, !tbaa !3
  %119 = icmp ne ptr %118, null
  br i1 %119, label %120, label %124

120:                                              ; preds = %117
  %121 = load ptr, ptr %7, align 8, !tbaa !12
  %122 = load ptr, ptr %4, align 8, !tbaa !3
  %123 = load i64, ptr %5, align 8, !tbaa !7
  call void @llvm.memcpy.p0.p0.i64(ptr align 1 %121, ptr align 1 %122, i64 %123, i1 false)
  br label %124

124:                                              ; preds = %120, %117, %114
  %125 = load ptr, ptr %7, align 8, !tbaa !12
  %126 = load i64, ptr %5, align 8, !tbaa !7
  %127 = getelementptr inbounds nuw i8, ptr %125, i64 %126
  store i8 0, ptr %127, align 1, !tbaa !9
  %128 = load ptr, ptr %7, align 8, !tbaa !12
  store ptr %128, ptr %3, align 8
  store i32 1, ptr %11, align 4
  br label %129

129:                                              ; preds = %124, %46
  call void @llvm.lifetime.end.p0(i64 8, ptr %10) #11
  call void @llvm.lifetime.end.p0(i64 4, ptr %9) #11
  call void @llvm.lifetime.end.p0(i64 1, ptr %8) #11
  call void @llvm.lifetime.end.p0(i64 8, ptr %7) #11
  call void @llvm.lifetime.end.p0(i64 8, ptr %6) #11
  %130 = load ptr, ptr %3, align 8
  ret ptr %130
}

; Function Attrs: inlinehint mustprogress nounwind uwtable
define internal noundef i64 @_ZN10duckdb_hllL6sdslenEPc(ptr noundef %0) #2 {
  %2 = alloca i64, align 8
  %3 = alloca ptr, align 8
  %4 = alloca i8, align 1
  %5 = alloca i32, align 4
  store ptr %0, ptr %3, align 8, !tbaa !12
  call void @llvm.lifetime.start.p0(i64 1, ptr %4) #11
  %6 = load ptr, ptr %3, align 8, !tbaa !12
  %7 = getelementptr inbounds i8, ptr %6, i64 -1
  %8 = load i8, ptr %7, align 1, !tbaa !9
  store i8 %8, ptr %4, align 1, !tbaa !9
  %9 = load i8, ptr %4, align 1, !tbaa !9
  %10 = zext i8 %9 to i32
  %11 = and i32 %10, 7
  switch i32 %11, label %40 [
    i32 0, label %12
    i32 1, label %17
    i32 2, label %23
    i32 3, label %29
    i32 4, label %35
  ]

12:                                               ; preds = %1
  %13 = load i8, ptr %4, align 1, !tbaa !9
  %14 = zext i8 %13 to i32
  %15 = ashr i32 %14, 3
  %16 = sext i32 %15 to i64
  store i64 %16, ptr %2, align 8
  store i32 1, ptr %5, align 4
  br label %41

17:                                               ; preds = %1
  %18 = load ptr, ptr %3, align 8, !tbaa !12
  %19 = getelementptr inbounds i8, ptr %18, i64 -4
  %20 = getelementptr inbounds nuw %"struct.duckdb_hll::sdshdr8", ptr %19, i32 0, i32 0
  %21 = load i8, ptr %20, align 1, !tbaa !16
  %22 = zext i8 %21 to i64
  store i64 %22, ptr %2, align 8
  store i32 1, ptr %5, align 4
  br label %41

23:                                               ; preds = %1
  %24 = load ptr, ptr %3, align 8, !tbaa !12
  %25 = getelementptr inbounds i8, ptr %24, i64 -6
  %26 = getelementptr inbounds nuw %"struct.duckdb_hll::sdshdr16", ptr %25, i32 0, i32 0
  %27 = load i16, ptr %26, align 1, !tbaa !21
  %28 = zext i16 %27 to i64
  store i64 %28, ptr %2, align 8
  store i32 1, ptr %5, align 4
  br label %41

29:                                               ; preds = %1
  %30 = load ptr, ptr %3, align 8, !tbaa !12
  %31 = getelementptr inbounds i8, ptr %30, i64 -10
  %32 = getelementptr inbounds nuw %"struct.duckdb_hll::sdshdr32", ptr %31, i32 0, i32 0
  %33 = load i32, ptr %32, align 1, !tbaa !27
  %34 = zext i32 %33 to i64
  store i64 %34, ptr %2, align 8
  store i32 1, ptr %5, align 4
  br label %41

35:                                               ; preds = %1
  %36 = load ptr, ptr %3, align 8, !tbaa !12
  %37 = getelementptr inbounds i8, ptr %36, i64 -18
  %38 = getelementptr inbounds nuw %"struct.duckdb_hll::sdshdr64", ptr %37, i32 0, i32 0
  %39 = load i64, ptr %38, align 1, !tbaa !32
  store i64 %39, ptr %2, align 8
  store i32 1, ptr %5, align 4
  br label %41

40:                                               ; preds = %1
  store i64 0, ptr %2, align 8
  store i32 1, ptr %5, align 4
  br label %41

41:                                               ; preds = %40, %35, %29, %23, %17, %12
  call void @llvm.lifetime.end.p0(i64 1, ptr %4) #11
  %42 = load i64, ptr %2, align 8
  ret i64 %42
}

; Function Attrs: mustprogress uwtable
define noundef ptr @_ZN10duckdb_hll6sdsdupEPc(ptr noundef %0) #0 {
  %2 = alloca ptr, align 8
  store ptr %0, ptr %2, align 8, !tbaa !12
  %3 = load ptr, ptr %2, align 8, !tbaa !12
  %4 = load ptr, ptr %2, align 8, !tbaa !12
  %5 = call noundef i64 @_ZN10duckdb_hllL6sdslenEPc(ptr noundef %4)
  %6 = call noundef ptr @_ZN10duckdb_hll9sdsnewlenEPKvm(ptr noundef %3, i64 noundef %5)
  ret ptr %6
}