; Function Attrs: mustprogress nofree nounwind willreturn uwtable
define noalias noundef ptr @_ZN10duckdb_hll6sdsdupEPc(ptr noundef readonly captures(none) %0) local_unnamed_addr #0 {
  %2 = getelementptr inbounds i8, ptr %0, i64 -1
  %3 = load i8, ptr %2, align 1, !tbaa !20
  %4 = zext i8 %3 to i32
  %5 = and i32 %4, 7
  switch i32 %5, label %_ZN10duckdb_hllL10sdsReqTypeEm.exit.i [
    i32 0, label %6
    i32 1, label %9
    i32 2, label %13
    i32 3, label %17
    i32 4, label %21
  ]

6:                                                ; preds = %1
  %7 = lshr i32 %4, 3
  %8 = zext nneg i32 %7 to i64
  br label %_ZN10duckdb_hllL10sdsReqTypeEm.exit.i

9:                                                ; preds = %1
  %10 = getelementptr inbounds i8, ptr %0, i64 -4
  %11 = load i8, ptr %10, align 1, !tbaa !3
  %12 = zext i8 %11 to i64
  br label %_ZN10duckdb_hllL6sdslenEPc.exit

13:                                               ; preds = %1
  %14 = getelementptr inbounds i8, ptr %0, i64 -6
  %15 = load i16, ptr %14, align 1, !tbaa !8
  %16 = zext i16 %15 to i64
  br label %_ZN10duckdb_hllL6sdslenEPc.exit

17:                                               ; preds = %1
  %18 = getelementptr inbounds i8, ptr %0, i64 -10
  %19 = load i32, ptr %18, align 1, !tbaa !12
  %20 = zext i32 %19 to i64
  br label %_ZN10duckdb_hllL6sdslenEPc.exit

21:                                               ; preds = %1
  %22 = getelementptr inbounds i8, ptr %0, i64 -18
  %23 = load i64, ptr %22, align 1, !tbaa !16
  br label %_ZN10duckdb_hllL6sdslenEPc.exit

_ZN10duckdb_hllL6sdslenEPc.exit:                  ; preds = %9, %13, %17, %21
  %.0.i = phi i64 [ %23, %21 ], [ %20, %17 ], [ %16, %13 ], [ %12, %9 ]
  %24 = icmp ult i64 %.0.i, 32
  br i1 %24, label %_ZN10duckdb_hllL10sdsReqTypeEm.exit.i, label %25

25:                                               ; preds = %_ZN10duckdb_hllL6sdslenEPc.exit
  %26 = icmp ult i64 %.0.i, 256
  br i1 %26, label %_ZN10duckdb_hllL10sdsReqTypeEm.exit.i, label %27

27:                                               ; preds = %25
  %28 = icmp ult i64 %.0.i, 65536
  br i1 %28, label %_ZN10duckdb_hllL10sdsReqTypeEm.exit.i, label %29

29:                                               ; preds = %27
  %30 = icmp ult i64 %.0.i, 4294967296
  %..i.i = select i1 %30, i8 3, i8 4
  br label %_ZN10duckdb_hllL10sdsReqTypeEm.exit.i

_ZN10duckdb_hllL10sdsReqTypeEm.exit.i:            ; preds = %1, %6, %29, %27, %25, %_ZN10duckdb_hllL6sdslenEPc.exit
  %.0.i4 = phi i64 [ %.0.i, %_ZN10duckdb_hllL6sdslenEPc.exit ], [ %.0.i, %25 ], [ %.0.i, %27 ], [ %.0.i, %29 ], [ 0, %1 ], [ %8, %6 ]
  %.0.i.i = phi i8 [ 0, %_ZN10duckdb_hllL6sdslenEPc.exit ], [ 1, %25 ], [ 2, %27 ], [ %..i.i, %29 ], [ 0, %1 ], [ 0, %6 ]
  %31 = icmp eq i8 %.0.i.i, 0
  %32 = icmp eq i64 %.0.i4, 0
  %or.cond.i = and i1 %32, %31
  %spec.store.select.i = select i1 %or.cond.i, i8 1, i8 %.0.i.i
  %33 = zext nneg i8 %spec.store.select.i to i64
  %switch.gep = getelementptr inbounds nuw [5 x i64], ptr @switch.table._ZN10duckdb_hll11sdssplitlenEPKclS1_iPi.2, i64 0, i64 %33
  %switch.load = load i64, ptr %switch.gep, align 8
  %34 = add i64 %.0.i4, 1
  %35 = add i64 %34, %switch.load
  %36 = tail call noalias ptr @malloc(i64 noundef %35) #28
  %37 = icmp eq ptr %36, null
  br i1 %37, label %_ZN10duckdb_hll9sdsnewlenEPKvm.exit, label %38

default.unreachable:                              ; preds = %38
  unreachable

38:                                               ; preds = %_ZN10duckdb_hllL10sdsReqTypeEm.exit.i
  %39 = getelementptr inbounds nuw i8, ptr %36, i64 %switch.load
  %40 = getelementptr inbounds i8, ptr %39, i64 -1
  switch i8 %spec.store.select.i, label %default.unreachable [
    i8 0, label %41
    i8 1, label %43
    i8 2, label %47
    i8 3, label %51
    i8 4, label %55
  ]

41:                                               ; preds = %38
  %.tr.i = trunc i64 %.0.i4 to i8
  %42 = shl i8 %.tr.i, 3
  br label %58

43:                                               ; preds = %38
  %44 = getelementptr inbounds i8, ptr %39, i64 -4
  %45 = trunc i64 %.0.i4 to i8
  store i8 %45, ptr %44, align 1, !tbaa !3
  %46 = getelementptr inbounds i8, ptr %39, i64 -3
  store i8 %45, ptr %46, align 1, !tbaa !7
  br label %58

47:                                               ; preds = %38
  %48 = getelementptr inbounds i8, ptr %39, i64 -6
  %49 = trunc i64 %.0.i4 to i16
  store i16 %49, ptr %48, align 1, !tbaa !8
  %50 = getelementptr inbounds i8, ptr %39, i64 -4
  store i16 %49, ptr %50, align 1, !tbaa !11
  br label %58

51:                                               ; preds = %38
  %52 = getelementptr inbounds i8, ptr %39, i64 -10
  %53 = trunc i64 %.0.i4 to i32
  store i32 %53, ptr %52, align 1, !tbaa !12
  %54 = getelementptr inbounds i8, ptr %39, i64 -6
  store i32 %53, ptr %54, align 1, !tbaa !15
  br label %58

55:                                               ; preds = %38
  %56 = getelementptr inbounds i8, ptr %39, i64 -18
  store i64 %.0.i4, ptr %56, align 1, !tbaa !16
  %57 = getelementptr inbounds i8, ptr %39, i64 -10
  store i64 %.0.i4, ptr %57, align 1, !tbaa !19
  br label %58

58:                                               ; preds = %55, %51, %47, %43, %41
  %.sink.i = phi i8 [ 4, %55 ], [ 3, %51 ], [ 2, %47 ], [ 1, %43 ], [ %42, %41 ]
  store i8 %.sink.i, ptr %40, align 1, !tbaa !20
  br i1 %32, label %60, label %59

59:                                               ; preds = %58
  tail call void @llvm.memcpy.p0.p0.i64(ptr nonnull align 1 %39, ptr nonnull readonly align 1 %0, i64 %.0.i4, i1 false)
  br label %60

60:                                               ; preds = %59, %58
  %61 = getelementptr inbounds nuw i8, ptr %39, i64 %.0.i4
  store i8 0, ptr %61, align 1, !tbaa !20
  br label %_ZN10duckdb_hll9sdsnewlenEPKvm.exit

_ZN10duckdb_hll9sdsnewlenEPKvm.exit:              ; preds = %_ZN10duckdb_hllL10sdsReqTypeEm.exit.i, %60
  %.0.i2 = phi ptr [ %39, %60 ], [ null, %_ZN10duckdb_hllL10sdsReqTypeEm.exit.i ]
  ret ptr %.0.i2
}